target datalayout = "e-m:e-p270:32:32-p271:32:32-p272:64:64-i64:64-i128:128-f80:128-n8:16:32:64-S128"
target triple = "x86_64-pc-linux-gnu"

%struct.point_t = type { float, float }
%struct.chart_t = type { ptr, ptr, ptr, ptr, float, float, float, float }
%struct._GList = type { ptr, ptr, ptr }
%struct.f_line_t = type { [4 x %struct.point_t] }

; Function Attrs: nounwind uwtable
define dso_local void @draw_cross(ptr noundef %0, <2 x float> %1) #3 {
  %3 = alloca %struct.point_t, align 4
  %4 = alloca ptr, align 8
  store <2 x float> %1, ptr %3, align 4
  store ptr %0, ptr %4, align 8, !tbaa !7
  %5 = load ptr, ptr %4, align 8, !tbaa !7
  %6 = getelementptr inbounds nuw %struct.point_t, ptr %3, i32 0, i32 0
  %7 = load float, ptr %6, align 4, !tbaa !16
  %8 = fsub reassoc nsz arcp contract afn float %7, 1.000000e+01
  %9 = fpext reassoc nsz arcp contract afn float %8 to double
  %10 = getelementptr inbounds nuw %struct.point_t, ptr %3, i32 0, i32 1
  %11 = load float, ptr %10, align 4, !tbaa !19
  %12 = fpext reassoc nsz arcp contract afn float %11 to double
  call void @cairo_move_to(ptr noundef %5, double noundef %9, double noundef %12)
  %13 = load ptr, ptr %4, align 8, !tbaa !7
  %14 = getelementptr inbounds nuw %struct.point_t, ptr %3, i32 0, i32 0
  %15 = load float, ptr %14, align 4, !tbaa !16
  %16 = fadd reassoc nsz arcp contract afn float %15, 1.000000e+01
  %17 = fpext reassoc nsz arcp contract afn float %16 to double
  %18 = getelementptr inbounds nuw %struct.point_t, ptr %3, i32 0, i32 1
  %19 = load float, ptr %18, align 4, !tbaa !19
  %20 = fpext reassoc nsz arcp contract afn float %19 to double
  call void @cairo_line_to(ptr noundef %13, double noundef %17, double noundef %20)
  %21 = load ptr, ptr %4, align 8, !tbaa !7
  %22 = getelementptr inbounds nuw %struct.point_t, ptr %3, i32 0, i32 0
  %23 = load float, ptr %22, align 4, !tbaa !16
  %24 = fpext reassoc nsz arcp contract afn float %23 to double
  %25 = getelementptr inbounds nuw %struct.point_t, ptr %3, i32 0, i32 1
  %26 = load float, ptr %25, align 4, !tbaa !19
  %27 = fsub reassoc nsz arcp contract afn float %26, 1.000000e+01
  %28 = fpext reassoc nsz arcp contract afn float %27 to double
  call void @cairo_move_to(ptr noundef %21, double noundef %24, double noundef %28)
  %29 = load ptr, ptr %4, align 8, !tbaa !7
  %30 = getelementptr inbounds nuw %struct.point_t, ptr %3, i32 0, i32 0
  %31 = load float, ptr %30, align 4, !tbaa !16
  %32 = fpext reassoc nsz arcp contract afn float %31 to double
  %33 = getelementptr inbounds nuw %struct.point_t, ptr %3, i32 0, i32 1
  %34 = load float, ptr %33, align 4, !tbaa !19
  %35 = fadd reassoc nsz arcp contract afn float %34, 1.000000e+01
  %36 = fpext reassoc nsz arcp contract afn float %35 to double
  call void @cairo_line_to(ptr noundef %29, double noundef %32, double noundef %36)
  ret void
}

; Function Attrs: nounwind uwtable
define dso_local void @draw_f_boxes(ptr noundef %0, ptr noundef %1, ptr noundef %2) #3 {
  %4 = alloca ptr, align 8
  %5 = alloca ptr, align 8
  %6 = alloca ptr, align 8
  %7 = alloca ptr, align 8
  %8 = alloca i32, align 4
  %9 = alloca ptr, align 8
  %10 = alloca i32, align 4
  %11 = alloca %struct.point_t, align 4
  store ptr %0, ptr %4, align 8, !tbaa !7
  store ptr %1, ptr %5, align 8, !tbaa !20
  store ptr %2, ptr %6, align 8, !tbaa !38
  call void @llvm.lifetime.start.p0(i64 8, ptr %7) #11
  %12 = load ptr, ptr %6, align 8, !tbaa !38
  %13 = getelementptr inbounds nuw %struct.chart_t, ptr %12, i32 0, i32 0
  %14 = load ptr, ptr %13, align 8, !tbaa !40
  store ptr %14, ptr %7, align 8, !tbaa !44
  br label %15

15:                                               ; preds = %50, %3
  %16 = load ptr, ptr %7, align 8, !tbaa !44
  %17 = icmp ne ptr %16, null
  br i1 %17, label %19, label %18

18:                                               ; preds = %15
  store i32 2, ptr %8, align 4
  call void @llvm.lifetime.end.p0(i64 8, ptr %7) #11
  br label %52

19:                                               ; preds = %15
  call void @llvm.lifetime.start.p0(i64 8, ptr %9) #11
  %20 = load ptr, ptr %7, align 8, !tbaa !44
  %21 = getelementptr inbounds nuw %struct._GList, ptr %20, i32 0, i32 0
  %22 = load ptr, ptr %21, align 8, !tbaa !45
  store ptr %22, ptr %9, align 8, !tbaa !47
  call void @llvm.lifetime.start.p0(i64 4, ptr %10) #11
  store i32 0, ptr %10, align 4, !tbaa !14
  br label %23

23:                                               ; preds = %38, %19
  %24 = load i32, ptr %10, align 4, !tbaa !14
  %25 = icmp slt i32 %24, 4
  br i1 %25, label %27, label %26

26:                                               ; preds = %23
  store i32 5, ptr %8, align 4
  call void @llvm.lifetime.end.p0(i64 4, ptr %10) #11
  br label %41

27:                                               ; preds = %23
  call void @llvm.lifetime.start.p0(i64 8, ptr %11) #11
  %28 = load ptr, ptr %9, align 8, !tbaa !47
  %29 = getelementptr inbounds nuw %struct.f_line_t, ptr %28, i32 0, i32 0
  %30 = load i32, ptr %10, align 4, !tbaa !14
  %31 = sext i32 %30 to i64
  %32 = getelementptr inbounds [4 x %struct.point_t], ptr %29, i64 0, i64 %31
  %33 = load ptr, ptr %5, align 8, !tbaa !20
  %34 = load <2 x float>, ptr %32, align 4
  %35 = call reassoc nsz arcp contract afn <2 x float> @apply_homography(<2 x float> %34, ptr noundef %33)
  store <2 x float> %35, ptr %11, align 4
  %36 = load ptr, ptr %4, align 8, !tbaa !7
  %37 = load <2 x float>, ptr %11, align 4
  call void @draw_cross(ptr noundef %36, <2 x float> %37)
  call void @llvm.lifetime.end.p0(i64 8, ptr %11) #11
  br label %38

38:                                               ; preds = %27
  %39 = load i32, ptr %10, align 4, !tbaa !14
  %40 = add nsw i32 %39, 1
  store i32 %40, ptr %10, align 4, !tbaa !14
  br label %23

41:                                               ; preds = %26
  call void @llvm.lifetime.end.p0(i64 8, ptr %9) #11
  br label %42

42:                                               ; preds = %41
  %43 = load ptr, ptr %7, align 8, !tbaa !44
  %44 = icmp ne ptr %43, null
  br i1 %44, label %45, label %49

45:                                               ; preds = %42
  %46 = load ptr, ptr %7, align 8, !tbaa !44
  %47 = getelementptr inbounds nuw %struct._GList, ptr %46, i32 0, i32 1
  %48 = load ptr, ptr %47, align 8, !tbaa !49
  br label %50

49:                                               ; preds = %42
  br label %50

50:                                               ; preds = %49, %45
  %51 = phi ptr [ %48, %45 ], [ null, %49 ]
  store ptr %51, ptr %7, align 8, !tbaa !44
  br label %15

52:                                               ; preds = %18
  ret void
}