; Function Attrs: nounwind uwtable
define dso_local void @draw_f_boxes(ptr noundef %0, ptr noundef %1, ptr noundef readonly captures(none) %2) local_unnamed_addr #3 {
  %.012 = load ptr, ptr %2, align 8, !tbaa !28
  %.not13 = icmp eq ptr %.012, null
  br i1 %.not13, label %._crit_edge, label %.lr.ph

._crit_edge:                                      ; preds = %19, %3
  ret void

.lr.ph:                                           ; preds = %3, %19
  %.014 = phi ptr [ %.0, %19 ], [ %.012, %3 ]
  %4 = load ptr, ptr %.014, align 8, !tbaa !30
  br label %5

5:                                                ; preds = %.lr.ph, %5
  %indvars.iv = phi i64 [ 0, %.lr.ph ], [ %indvars.iv.next, %5 ]
  %6 = getelementptr inbounds nuw [4 x %struct.point_t], ptr %4, i64 0, i64 %indvars.iv
  %7 = load <2 x float>, ptr %6, align 4
  %8 = tail call reassoc nsz arcp contract afn <2 x float> @apply_homography(<2 x float> %7, ptr noundef %1) #8
  %.sroa.0.0.vec.extract.i = extractelement <2 x float> %8, i64 0
  %9 = fadd reassoc nsz arcp contract afn float %.sroa.0.0.vec.extract.i, -1.000000e+01
  %10 = fpext reassoc nsz arcp contract afn float %9 to double
  %.sroa.0.4.vec.extract.i = extractelement <2 x float> %8, i64 1
  %11 = fpext reassoc nsz arcp contract afn float %.sroa.0.4.vec.extract.i to double
  tail call void @cairo_move_to(ptr noundef %0, double noundef %10, double noundef %11) #8
  %12 = fadd reassoc nsz arcp contract afn float %.sroa.0.0.vec.extract.i, 1.000000e+01
  %13 = fpext reassoc nsz arcp contract afn float %12 to double
  tail call void @cairo_line_to(ptr noundef %0, double noundef %13, double noundef %11) #8
  %14 = fpext reassoc nsz arcp contract afn float %.sroa.0.0.vec.extract.i to double
  %15 = fadd reassoc nsz arcp contract afn float %.sroa.0.4.vec.extract.i, -1.000000e+01
  %16 = fpext reassoc nsz arcp contract afn float %15 to double
  tail call void @cairo_move_to(ptr noundef %0, double noundef %14, double noundef %16) #8
  %17 = fadd reassoc nsz arcp contract afn float %.sroa.0.4.vec.extract.i, 1.000000e+01
  %18 = fpext reassoc nsz arcp contract afn float %17 to double
  tail call void @cairo_line_to(ptr noundef %0, double noundef %14, double noundef %18) #8
  %indvars.iv.next = add nuw nsw i64 %indvars.iv, 1
  %exitcond.not = icmp eq i64 %indvars.iv.next, 4
  br i1 %exitcond.not, label %19, label %5

19:                                               ; preds = %5
  %20 = getelementptr inbounds nuw i8, ptr %.014, i64 8
  %.0 = load ptr, ptr %20, align 8, !tbaa !28
  %.not = icmp eq ptr %.0, null
  br i1 %.not, label %._crit_edge, label %.lr.ph
}